target datalayout = "e-m:e-p270:32:32-p271:32:32-p272:64:64-i64:64-i128:128-f80:128-n8:16:32:64-S128"
target triple = "x86_64-pc-linux-gnu"

; Function Attrs: nounwind uwtable
define internal void @pred4x4_vertical_add_10_c(ptr noundef %0, ptr noundef %1, i64 noundef %2) #1 {
  %4 = alloca ptr, align 8
  %5 = alloca ptr, align 8
  %6 = alloca i64, align 8
  %7 = alloca i32, align 4
  %8 = alloca ptr, align 8
  %9 = alloca ptr, align 8
  %10 = alloca i16, align 2
  store ptr %0, ptr %4, align 8, !tbaa !12
  store ptr %1, ptr %5, align 8, !tbaa !16
  store i64 %2, ptr %6, align 8, !tbaa !14
  call void @llvm.lifetime.start.p0(i64 4, ptr %7) #9
  call void @llvm.lifetime.start.p0(i64 8, ptr %8) #9
  %11 = load ptr, ptr %4, align 8, !tbaa !12
  store ptr %11, ptr %8, align 8, !tbaa !16
  call void @llvm.lifetime.start.p0(i64 8, ptr %9) #9
  %12 = load ptr, ptr %5, align 8, !tbaa !16
  store ptr %12, ptr %9, align 8, !tbaa !63
  %13 = load i64, ptr %6, align 8, !tbaa !14
  %14 = ashr i64 %13, 1
  store i64 %14, ptr %6, align 8, !tbaa !14
  %15 = load i64, ptr %6, align 8, !tbaa !14
  %16 = load ptr, ptr %8, align 8, !tbaa !16
  %17 = sub i64 0, %15
  %18 = getelementptr inbounds i16, ptr %16, i64 %17
  store ptr %18, ptr %8, align 8, !tbaa !16
  store i32 0, ptr %7, align 4, !tbaa !9
  br label %19

19:                                               ; preds = %74, %3
  %20 = load i32, ptr %7, align 4, !tbaa !9
  %21 = icmp slt i32 %20, 4
  br i1 %21, label %22, label %77

22:                                               ; preds = %19
  call void @llvm.lifetime.start.p0(i64 2, ptr %10) #9
  %23 = load ptr, ptr %8, align 8, !tbaa !16
  %24 = getelementptr inbounds i16, ptr %23, i64 0
  %25 = load i16, ptr %24, align 2, !tbaa !19
  store i16 %25, ptr %10, align 2, !tbaa !19
  %26 = load ptr, ptr %9, align 8, !tbaa !63
  %27 = getelementptr inbounds i32, ptr %26, i64 0
  %28 = load i32, ptr %27, align 4, !tbaa !9
  %29 = load i16, ptr %10, align 2, !tbaa !19
  %30 = zext i16 %29 to i32
  %31 = add nsw i32 %30, %28
  %32 = trunc i32 %31 to i16
  store i16 %32, ptr %10, align 2, !tbaa !19
  %33 = load ptr, ptr %8, align 8, !tbaa !16
  %34 = load i64, ptr %6, align 8, !tbaa !14
  %35 = mul nsw i64 1, %34
  %36 = getelementptr inbounds i16, ptr %33, i64 %35
  store i16 %32, ptr %36, align 2, !tbaa !19
  %37 = load ptr, ptr %9, align 8, !tbaa !63
  %38 = getelementptr inbounds i32, ptr %37, i64 4
  %39 = load i32, ptr %38, align 4, !tbaa !9
  %40 = load i16, ptr %10, align 2, !tbaa !19
  %41 = zext i16 %40 to i32
  %42 = add nsw i32 %41, %39
  %43 = trunc i32 %42 to i16
  store i16 %43, ptr %10, align 2, !tbaa !19
  %44 = load ptr, ptr %8, align 8, !tbaa !16
  %45 = load i64, ptr %6, align 8, !tbaa !14
  %46 = mul nsw i64 2, %45
  %47 = getelementptr inbounds i16, ptr %44, i64 %46
  store i16 %43, ptr %47, align 2, !tbaa !19
  %48 = load ptr, ptr %9, align 8, !tbaa !63
  %49 = getelementptr inbounds i32, ptr %48, i64 8
  %50 = load i32, ptr %49, align 4, !tbaa !9
  %51 = load i16, ptr %10, align 2, !tbaa !19
  %52 = zext i16 %51 to i32
  %53 = add nsw i32 %52, %50
  %54 = trunc i32 %53 to i16
  store i16 %54, ptr %10, align 2, !tbaa !19
  %55 = load ptr, ptr %8, align 8, !tbaa !16
  %56 = load i64, ptr %6, align 8, !tbaa !14
  %57 = mul nsw i64 3, %56
  %58 = getelementptr inbounds i16, ptr %55, i64 %57
  store i16 %54, ptr %58, align 2, !tbaa !19
  %59 = load i16, ptr %10, align 2, !tbaa !19
  %60 = zext i16 %59 to i32
  %61 = load ptr, ptr %9, align 8, !tbaa !63
  %62 = getelementptr inbounds i32, ptr %61, i64 12
  %63 = load i32, ptr %62, align 4, !tbaa !9
  %64 = add nsw i32 %60, %63
  %65 = trunc i32 %64 to i16
  %66 = load ptr, ptr %8, align 8, !tbaa !16
  %67 = load i64, ptr %6, align 8, !tbaa !14
  %68 = mul nsw i64 4, %67
  %69 = getelementptr inbounds i16, ptr %66, i64 %68
  store i16 %65, ptr %69, align 2, !tbaa !19
  %70 = load ptr, ptr %8, align 8, !tbaa !16
  %71 = getelementptr inbounds nuw i16, ptr %70, i32 1
  store ptr %71, ptr %8, align 8, !tbaa !16
  %72 = load ptr, ptr %9, align 8, !tbaa !63
  %73 = getelementptr inbounds nuw i32, ptr %72, i32 1
  store ptr %73, ptr %9, align 8, !tbaa !63
  call void @llvm.lifetime.end.p0(i64 2, ptr %10) #9
  br label %74

74:                                               ; preds = %22
  %75 = load i32, ptr %7, align 4, !tbaa !9
  %76 = add nsw i32 %75, 1
  store i32 %76, ptr %7, align 4, !tbaa !9
  br label %19, !llvm.loop !120

77:                                               ; preds = %19
  %78 = load ptr, ptr %5, align 8, !tbaa !16
  call void @llvm.memset.p0.i64(ptr align 2 %78, i8 0, i64 64, i1 false)
  call void @llvm.lifetime.end.p0(i64 8, ptr %9) #9
  call void @llvm.lifetime.end.p0(i64 8, ptr %8) #9
  call void @llvm.lifetime.end.p0(i64 4, ptr %7) #9
  ret void
}

; Function Attrs: nounwind uwtable
define internal void @pred8x8_vertical_add_10_c(ptr noundef %0, ptr noundef %1, ptr noundef %2, i64 noundef %3) #1 {
  %5 = alloca ptr, align 8
  %6 = alloca ptr, align 8
  %7 = alloca ptr, align 8
  %8 = alloca i64, align 8
  %9 = alloca i32, align 4
  store ptr %0, ptr %5, align 8, !tbaa !12
  store ptr %1, ptr %6, align 8, !tbaa !63
  store ptr %2, ptr %7, align 8, !tbaa !16
  store i64 %3, ptr %8, align 8, !tbaa !14
  call void @llvm.lifetime.start.p0(i64 4, ptr %9) #9
  store i32 0, ptr %9, align 4, !tbaa !9
  br label %10

10:                                               ; preds = %29, %4
  %11 = load i32, ptr %9, align 4, !tbaa !9
  %12 = icmp slt i32 %11, 4
  br i1 %12, label %13, label %32

13:                                               ; preds = %10
  %14 = load ptr, ptr %5, align 8, !tbaa !12
  %15 = load ptr, ptr %6, align 8, !tbaa !63
  %16 = load i32, ptr %9, align 4, !tbaa !9
  %17 = sext i32 %16 to i64
  %18 = getelementptr inbounds i32, ptr %15, i64 %17
  %19 = load i32, ptr %18, align 4, !tbaa !9
  %20 = sext i32 %19 to i64
  %21 = getelementptr inbounds i8, ptr %14, i64 %20
  %22 = load ptr, ptr %7, align 8, !tbaa !16
  %23 = load i32, ptr %9, align 4, !tbaa !9
  %24 = mul nsw i32 %23, 16
  %25 = sext i32 %24 to i64
  %26 = mul i64 %25, 2
  %27 = getelementptr inbounds nuw i16, ptr %22, i64 %26
  %28 = load i64, ptr %8, align 8, !tbaa !14
  call void @pred4x4_vertical_add_10_c(ptr noundef %21, ptr noundef %27, i64 noundef %28)
  br label %29

29:                                               ; preds = %13
  %30 = load i32, ptr %9, align 4, !tbaa !9
  %31 = add nsw i32 %30, 1
  store i32 %31, ptr %9, align 4, !tbaa !9
  br label %10, !llvm.loop !126

32:                                               ; preds = %10
  call void @llvm.lifetime.end.p0(i64 4, ptr %9) #9
  ret void
}